target datalayout = "e-m:e-p270:32:32-p271:32:32-p272:64:64-i64:64-i128:128-f80:128-n8:16:32:64-S128"
target triple = "x86_64-pc-linux-gnu"

%class.Jipopt = type { %"class.Ipopt::TNLP.base", ptr, ptr, i32, i32, i32, i32, i32, ptr, ptr, ptr, ptr, ptr, ptr, ptr, ptr, ptr, i8, i8, %"class.Ipopt::SmartPtr", ptr, ptr, ptr, ptr, ptr, ptr, ptr, ptr, ptr, ptr, ptr }
%"class.Ipopt::TNLP.base" = type { %"class.Ipopt::ReferencedObject.base" }
%"class.Ipopt::ReferencedObject.base" = type <{ ptr, i32 }>
%"class.Ipopt::SmartPtr" = type { ptr }

; Function Attrs: mustprogress nounwind uwtable
define noundef zeroext i1 @_ZN6Jipopt12get_nlp_infoERiS0_S0_S0_RN5Ipopt4TNLP14IndexStyleEnumE(ptr noundef nonnull align 8 dereferenceable(232) %0, ptr noundef nonnull align 4 dereferenceable(4) %1, ptr noundef nonnull align 4 dereferenceable(4) %2, ptr noundef nonnull align 4 dereferenceable(4) %3, ptr noundef nonnull align 4 dereferenceable(4) %4, ptr noundef nonnull align 4 dereferenceable(4) %5) unnamed_addr #7 align 2 {
  %7 = alloca ptr, align 8
  %8 = alloca ptr, align 8
  %9 = alloca ptr, align 8
  %10 = alloca ptr, align 8
  %11 = alloca ptr, align 8
  %12 = alloca ptr, align 8
  store ptr %0, ptr %7, align 8, !tbaa !3
  store ptr %1, ptr %8, align 8, !tbaa !95
  store ptr %2, ptr %9, align 8, !tbaa !95
  store ptr %3, ptr %10, align 8, !tbaa !95
  store ptr %4, ptr %11, align 8, !tbaa !95
  store ptr %5, ptr %12, align 8, !tbaa !94
  %13 = load ptr, ptr %7, align 8
  %14 = getelementptr inbounds nuw %class.Jipopt, ptr %13, i32 0, i32 3
  %15 = load i32, ptr %14, align 8, !tbaa !25
  %16 = load ptr, ptr %8, align 8, !tbaa !95
  store i32 %15, ptr %16, align 4, !tbaa !12
  %17 = getelementptr inbounds nuw %class.Jipopt, ptr %13, i32 0, i32 4
  %18 = load i32, ptr %17, align 4, !tbaa !26
  %19 = load ptr, ptr %9, align 8, !tbaa !95
  store i32 %18, ptr %19, align 4, !tbaa !12
  %20 = getelementptr inbounds nuw %class.Jipopt, ptr %13, i32 0, i32 5
  %21 = load i32, ptr %20, align 8, !tbaa !27
  %22 = load ptr, ptr %10, align 8, !tbaa !95
  store i32 %21, ptr %22, align 4, !tbaa !12
  %23 = getelementptr inbounds nuw %class.Jipopt, ptr %13, i32 0, i32 6
  %24 = load i32, ptr %23, align 4, !tbaa !28
  %25 = load ptr, ptr %11, align 8, !tbaa !95
  store i32 %24, ptr %25, align 4, !tbaa !12
  %26 = getelementptr inbounds nuw %class.Jipopt, ptr %13, i32 0, i32 7
  %27 = load i32, ptr %26, align 8, !tbaa !29
  %28 = load ptr, ptr %12, align 8, !tbaa !94
  store i32 %27, ptr %28, align 4, !tbaa !97
  ret i1 true
}