; Function Attrs: mustprogress nofree norecurse nosync nounwind willreturn memory(argmem: readwrite) uwtable
define noundef zeroext i1 @_ZN6Jipopt12get_nlp_infoERiS0_S0_S0_RN5Ipopt4TNLP14IndexStyleEnumE(ptr noundef nonnull readonly align 8 captures(none) dereferenceable(232) %0, ptr noundef nonnull writeonly align 4 captures(none) dereferenceable(4) initializes((0, 4)) %1, ptr noundef nonnull writeonly align 4 captures(none) dereferenceable(4) initializes((0, 4)) %2, ptr noundef nonnull writeonly align 4 captures(none) dereferenceable(4) initializes((0, 4)) %3, ptr noundef nonnull writeonly align 4 captures(none) dereferenceable(4) initializes((0, 4)) %4, ptr noundef nonnull writeonly align 4 captures(none) dereferenceable(4) initializes((0, 4)) %5) unnamed_addr #7 align 2 {
  %7 = getelementptr inbounds nuw i8, ptr %0, i64 32
  %8 = load i32, ptr %7, align 8, !tbaa !21
  store i32 %8, ptr %1, align 4, !tbaa !88
  %9 = getelementptr inbounds nuw i8, ptr %0, i64 36
  %10 = load i32, ptr %9, align 4, !tbaa !22
  store i32 %10, ptr %2, align 4, !tbaa !88
  %11 = getelementptr inbounds nuw i8, ptr %0, i64 40
  %12 = load i32, ptr %11, align 8, !tbaa !23
  store i32 %12, ptr %3, align 4, !tbaa !88
  %13 = getelementptr inbounds nuw i8, ptr %0, i64 44
  %14 = load i32, ptr %13, align 4, !tbaa !24
  store i32 %14, ptr %4, align 4, !tbaa !88
  %15 = getelementptr inbounds nuw i8, ptr %0, i64 48
  %16 = load i32, ptr %15, align 8, !tbaa !25
  store i32 %16, ptr %5, align 4, !tbaa !89
  ret i1 true
}